; Function Attrs: mustprogress nofree norecurse nosync nounwind willreturn memory(read, inaccessiblemem: none) uwtable
define hidden i64 @b2MakeBodyId(ptr noundef readonly captures(none) %0, i32 noundef %1) local_unnamed_addr #4 {
  %3 = getelementptr inbounds nuw i8, ptr %0, i64 1032
  %.val = load ptr, ptr %3, align 8, !tbaa !10
  %4 = sext i32 %1 to i64
  %5 = add nsw i32 %1, 1
  %6 = getelementptr inbounds nuw i8, ptr %0, i64 1780
  %7 = load i16, ptr %6, align 4, !tbaa !28
  %8 = getelementptr inbounds %struct.b2Body, ptr %.val, i64 %4, i32 21
  %9 = load i16, ptr %8, align 4, !tbaa !73
  %.sroa.3.0.insert.ext = zext i16 %9 to i64
  %.sroa.3.0.insert.shift = shl nuw i64 %.sroa.3.0.insert.ext, 48
  %.sroa.2.0.insert.ext = zext i16 %7 to i64
  %.sroa.2.0.insert.shift = shl nuw nsw i64 %.sroa.2.0.insert.ext, 32
  %.sroa.0.0.insert.ext = zext i32 %5 to i64
  %.sroa.2.0.insert.insert = or disjoint i64 %.sroa.2.0.insert.shift, %.sroa.0.0.insert.ext
  %.sroa.0.0.insert.insert = or disjoint i64 %.sroa.2.0.insert.insert, %.sroa.3.0.insert.shift
  ret i64 %.sroa.0.0.insert.insert
}